target datalayout = "e-m:e-p270:32:32-p271:32:32-p272:64:64-i64:64-i128:128-f80:128-n8:16:32:64-S128"
target triple = "x86_64-pc-linux-gnu"

%struct.CVodeMemRec = type { ptr, double, ptr, ptr, i32, i32, double, double, ptr, i32, i32, ptr, ptr, i32, i32, ptr, i32, i32, double, double, ptr, i32, i32, i32, i32, ptr, ptr, ptr, i32, i32, ptr, ptr, ptr, i32, double, i32, i32, double, ptr, ptr, ptr, i32, ptr, ptr, i32, i32, i32, double, ptr, ptr, ptr, [13 x ptr], ptr, ptr, ptr, ptr, ptr, ptr, ptr, ptr, ptr, [13 x ptr], ptr, ptr, ptr, ptr, [13 x ptr], ptr, ptr, ptr, ptr, ptr, i32, [13 x ptr], ptr, ptr, ptr, ptr, ptr, i32, i32, double, i32, i32, i32, i32, i32, double, double, double, double, double, double, double, double, [14 x double], [6 x double], [13 x double], double, double, double, double, double, double, double, double, i32, double, double, i32, double, double, ptr, i32, i64, i32, i32, i32, double, double, double, double, double, double, double, double, double, double, double, double, i64, i32, i64, i64, i64, i64, i64, i64, i64, i64, i64, ptr, i64, i64, ptr, i64, i64, ptr, i64, i64, i64, i64, i64, i64, i32, double, double, double, i64, i64, i64, i64, i64, i64, ptr, i32, ptr, i32, ptr, i32, ptr, i32, i32, i64, i32, ptr, i32, ptr, ptr, ptr, ptr, ptr, ptr, i32, i32, ptr, ptr, ptr, ptr, ptr, i64, double, i32, i32, i64, double, double, double, i32, i32, double, i32, i32, i32, i32, i32, i32, i32, i32, i32, i32, i32, i32, i32, i32, i32, i32, ptr, i64, i32, [6 x [4 x double]], i32, i64, ptr, i32, ptr, ptr, double, double, double, ptr, ptr, ptr, double, double, i32, i32, i64, ptr, i32, ptr, i32, i32, [13 x double], ptr, ptr, ptr, i32, ptr, i32 }
%struct._generic_N_Vector = type { ptr, ptr, ptr }
%struct._N_VectorContent_SensWrapper = type { ptr, i32, i32 }

@.str = private unnamed_addr constant [123 x i8] c"generated/home/dtcxzyw/WorkSpace/Projects/compilers/llvm-opt-benchmark/bench/sundials/sundials/src/cvodes/cvodes_nls_sim.c\00", align 1
@.str.1 = private unnamed_addr constant [26 x i8] c"cvode_mem = NULL illegal.\00", align 1
@__func__.cvNlsResidualSensSim = private unnamed_addr constant [21 x i8] c"cvNlsResidualSensSim\00", align 1

; Function Attrs: nounwind uwtable
define internal i32 @cvNlsResidualSensSim(ptr noundef %0, ptr noundef %1, ptr noundef %2) #0 {
  %4 = alloca i32, align 4
  %5 = alloca ptr, align 8
  %6 = alloca ptr, align 8
  %7 = alloca ptr, align 8
  %8 = alloca ptr, align 8
  %9 = alloca i32, align 4
  %10 = alloca ptr, align 8
  %11 = alloca ptr, align 8
  %12 = alloca ptr, align 8
  %13 = alloca ptr, align 8
  %14 = alloca [3 x double], align 16
  %15 = alloca [3 x ptr], align 16
  store ptr %0, ptr %5, align 8
  store ptr %1, ptr %6, align 8
  store ptr %2, ptr %7, align 8
  %16 = load ptr, ptr %7, align 8
  %17 = icmp eq ptr %16, null
  br i1 %17, label %18, label %19

18:                                               ; preds = %3
  call void (ptr, i32, i32, ptr, ptr, ptr, ...) @cvProcessError(ptr noundef null, i32 noundef -21, i32 noundef 465, ptr noundef @__func__.cvNlsResidualSensSim, ptr noundef @.str, ptr noundef @.str.1)
  store i32 -21, ptr %4, align 4
  br label %180

19:                                               ; preds = %3
  %20 = load ptr, ptr %7, align 8
  store ptr %20, ptr %8, align 8
  %21 = load ptr, ptr %5, align 8
  %22 = getelementptr inbounds %struct._generic_N_Vector, ptr %21, i32 0, i32 0
  %23 = load ptr, ptr %22, align 8
  %24 = getelementptr inbounds %struct._N_VectorContent_SensWrapper, ptr %23, i32 0, i32 0
  %25 = load ptr, ptr %24, align 8
  %26 = getelementptr inbounds ptr, ptr %25, i64 0
  %27 = load ptr, ptr %26, align 8
  store ptr %27, ptr %10, align 8
  %28 = load ptr, ptr %6, align 8
  %29 = getelementptr inbounds %struct._generic_N_Vector, ptr %28, i32 0, i32 0
  %30 = load ptr, ptr %29, align 8
  %31 = getelementptr inbounds %struct._N_VectorContent_SensWrapper, ptr %30, i32 0, i32 0
  %32 = load ptr, ptr %31, align 8
  %33 = getelementptr inbounds ptr, ptr %32, i64 0
  %34 = load ptr, ptr %33, align 8
  store ptr %34, ptr %11, align 8
  %35 = load ptr, ptr %8, align 8
  %36 = getelementptr inbounds %struct.CVodeMemRec, ptr %35, i32 0, i32 51
  %37 = getelementptr inbounds [13 x ptr], ptr %36, i64 0, i64 0
  %38 = load ptr, ptr %37, align 8
  %39 = load ptr, ptr %10, align 8
  %40 = load ptr, ptr %8, align 8
  %41 = getelementptr inbounds %struct.CVodeMemRec, ptr %40, i32 0, i32 53
  %42 = load ptr, ptr %41, align 8
  call void @N_VLinearSum(double noundef 1.000000e+00, ptr noundef %38, double noundef 1.000000e+00, ptr noundef %39, ptr noundef %42)
  %43 = load ptr, ptr %8, align 8
  %44 = getelementptr inbounds %struct.CVodeMemRec, ptr %43, i32 0, i32 175
  %45 = load ptr, ptr %44, align 8
  %46 = load ptr, ptr %8, align 8
  %47 = getelementptr inbounds %struct.CVodeMemRec, ptr %46, i32 0, i32 93
  %48 = load double, ptr %47, align 8
  %49 = load ptr, ptr %8, align 8
  %50 = getelementptr inbounds %struct.CVodeMemRec, ptr %49, i32 0, i32 53
  %51 = load ptr, ptr %50, align 8
  %52 = load ptr, ptr %8, align 8
  %53 = getelementptr inbounds %struct.CVodeMemRec, ptr %52, i32 0, i32 56
  %54 = load ptr, ptr %53, align 8
  %55 = load ptr, ptr %8, align 8
  %56 = getelementptr inbounds %struct.CVodeMemRec, ptr %55, i32 0, i32 3
  %57 = load ptr, ptr %56, align 8
  %58 = call i32 %45(double noundef %48, ptr noundef %51, ptr noundef %54, ptr noundef %57)
  store i32 %58, ptr %9, align 4
  %59 = load ptr, ptr %8, align 8
  %60 = getelementptr inbounds %struct.CVodeMemRec, ptr %59, i32 0, i32 133
  %61 = load i64, ptr %60, align 8
  %62 = add nsw i64 %61, 1
  store i64 %62, ptr %60, align 8
  %63 = load i32, ptr %9, align 4
  %64 = icmp slt i32 %63, 0
  br i1 %64, label %65, label %66

65:                                               ; preds = %19
  store i32 -8, ptr %4, align 4
  br label %180

66:                                               ; preds = %19
  %67 = load i32, ptr %9, align 4
  %68 = icmp sgt i32 %67, 0
  br i1 %68, label %69, label %70

69:                                               ; preds = %66
  store i32 10, ptr %4, align 4
  br label %180

70:                                               ; preds = %66
  %71 = load ptr, ptr %8, align 8
  %72 = getelementptr inbounds %struct.CVodeMemRec, ptr %71, i32 0, i32 98
  %73 = load double, ptr %72, align 8
  %74 = load ptr, ptr %8, align 8
  %75 = getelementptr inbounds %struct.CVodeMemRec, ptr %74, i32 0, i32 51
  %76 = getelementptr inbounds [13 x ptr], ptr %75, i64 0, i64 1
  %77 = load ptr, ptr %76, align 8
  %78 = load ptr, ptr %10, align 8
  %79 = load ptr, ptr %11, align 8
  call void @N_VLinearSum(double noundef %73, ptr noundef %77, double noundef 1.000000e+00, ptr noundef %78, ptr noundef %79)
  %80 = load ptr, ptr %8, align 8
  %81 = getelementptr inbounds %struct.CVodeMemRec, ptr %80, i32 0, i32 99
  %82 = load double, ptr %81, align 8
  %83 = fneg double %82
  %84 = load ptr, ptr %8, align 8
  %85 = getelementptr inbounds %struct.CVodeMemRec, ptr %84, i32 0, i32 56
  %86 = load ptr, ptr %85, align 8
  %87 = load ptr, ptr %11, align 8
  %88 = load ptr, ptr %11, align 8
  call void @N_VLinearSum(double noundef %83, ptr noundef %86, double noundef 1.000000e+00, ptr noundef %87, ptr noundef %88)
  %89 = load ptr, ptr %5, align 8
  %90 = getelementptr inbounds %struct._generic_N_Vector, ptr %89, i32 0, i32 0
  %91 = load ptr, ptr %90, align 8
  %92 = getelementptr inbounds %struct._N_VectorContent_SensWrapper, ptr %91, i32 0, i32 0
  %93 = load ptr, ptr %92, align 8
  %94 = getelementptr inbounds ptr, ptr %93, i64 1
  store ptr %94, ptr %12, align 8
  %95 = load ptr, ptr %6, align 8
  %96 = getelementptr inbounds %struct._generic_N_Vector, ptr %95, i32 0, i32 0
  %97 = load ptr, ptr %96, align 8
  %98 = getelementptr inbounds %struct._N_VectorContent_SensWrapper, ptr %97, i32 0, i32 0
  %99 = load ptr, ptr %98, align 8
  %100 = getelementptr inbounds ptr, ptr %99, i64 1
  store ptr %100, ptr %13, align 8
  %101 = load ptr, ptr %8, align 8
  %102 = getelementptr inbounds %struct.CVodeMemRec, ptr %101, i32 0, i32 23
  %103 = load i32, ptr %102, align 8
  %104 = load ptr, ptr %8, align 8
  %105 = getelementptr inbounds %struct.CVodeMemRec, ptr %104, i32 0, i32 66
  %106 = getelementptr inbounds [13 x ptr], ptr %105, i64 0, i64 0
  %107 = load ptr, ptr %106, align 8
  %108 = load ptr, ptr %12, align 8
  %109 = load ptr, ptr %8, align 8
  %110 = getelementptr inbounds %struct.CVodeMemRec, ptr %109, i32 0, i32 68
  %111 = load ptr, ptr %110, align 8
  %112 = call i32 @N_VLinearSumVectorArray(i32 noundef %103, double noundef 1.000000e+00, ptr noundef %107, double noundef 1.000000e+00, ptr noundef %108, ptr noundef %111)
  store i32 %112, ptr %9, align 4
  %113 = load i32, ptr %9, align 4
  %114 = icmp ne i32 %113, 0
  br i1 %114, label %115, label %116

115:                                              ; preds = %70
  store i32 -28, ptr %4, align 4
  br label %180

116:                                              ; preds = %70
  %117 = load ptr, ptr %8, align 8
  %118 = load ptr, ptr %8, align 8
  %119 = getelementptr inbounds %struct.CVodeMemRec, ptr %118, i32 0, i32 93
  %120 = load double, ptr %119, align 8
  %121 = load ptr, ptr %8, align 8
  %122 = getelementptr inbounds %struct.CVodeMemRec, ptr %121, i32 0, i32 53
  %123 = load ptr, ptr %122, align 8
  %124 = load ptr, ptr %8, align 8
  %125 = getelementptr inbounds %struct.CVodeMemRec, ptr %124, i32 0, i32 56
  %126 = load ptr, ptr %125, align 8
  %127 = load ptr, ptr %8, align 8
  %128 = getelementptr inbounds %struct.CVodeMemRec, ptr %127, i32 0, i32 68
  %129 = load ptr, ptr %128, align 8
  %130 = load ptr, ptr %8, align 8
  %131 = getelementptr inbounds %struct.CVodeMemRec, ptr %130, i32 0, i32 71
  %132 = load ptr, ptr %131, align 8
  %133 = load ptr, ptr %8, align 8
  %134 = getelementptr inbounds %struct.CVodeMemRec, ptr %133, i32 0, i32 57
  %135 = load ptr, ptr %134, align 8
  %136 = load ptr, ptr %8, align 8
  %137 = getelementptr inbounds %struct.CVodeMemRec, ptr %136, i32 0, i32 58
  %138 = load ptr, ptr %137, align 8
  %139 = call i32 @cvSensRhsWrapper(ptr noundef %117, double noundef %120, ptr noundef %123, ptr noundef %126, ptr noundef %129, ptr noundef %132, ptr noundef %135, ptr noundef %138)
  store i32 %139, ptr %9, align 4
  %140 = load i32, ptr %9, align 4
  %141 = icmp slt i32 %140, 0
  br i1 %141, label %142, label %143

142:                                              ; preds = %116
  store i32 -41, ptr %4, align 4
  br label %180

143:                                              ; preds = %116
  %144 = load i32, ptr %9, align 4
  %145 = icmp sgt i32 %144, 0
  br i1 %145, label %146, label %147

146:                                              ; preds = %143
  store i32 15, ptr %4, align 4
  br label %180

147:                                              ; preds = %143
  %148 = load ptr, ptr %8, align 8
  %149 = getelementptr inbounds %struct.CVodeMemRec, ptr %148, i32 0, i32 98
  %150 = load double, ptr %149, align 8
  %151 = getelementptr inbounds [3 x double], ptr %14, i64 0, i64 0
  store double %150, ptr %151, align 16
  %152 = load ptr, ptr %8, align 8
  %153 = getelementptr inbounds %struct.CVodeMemRec, ptr %152, i32 0, i32 66
  %154 = getelementptr inbounds [13 x ptr], ptr %153, i64 0, i64 1
  %155 = load ptr, ptr %154, align 8
  %156 = getelementptr inbounds [3 x ptr], ptr %15, i64 0, i64 0
  store ptr %155, ptr %156, align 16
  %157 = getelementptr inbounds [3 x double], ptr %14, i64 0, i64 1
  store double 1.000000e+00, ptr %157, align 8
  %158 = load ptr, ptr %12, align 8
  %159 = getelementptr inbounds [3 x ptr], ptr %15, i64 0, i64 1
  store ptr %158, ptr %159, align 8
  %160 = load ptr, ptr %8, align 8
  %161 = getelementptr inbounds %struct.CVodeMemRec, ptr %160, i32 0, i32 99
  %162 = load double, ptr %161, align 8
  %163 = fneg double %162
  %164 = getelementptr inbounds [3 x double], ptr %14, i64 0, i64 2
  store double %163, ptr %164, align 16
  %165 = load ptr, ptr %8, align 8
  %166 = getelementptr inbounds %struct.CVodeMemRec, ptr %165, i32 0, i32 71
  %167 = load ptr, ptr %166, align 8
  %168 = getelementptr inbounds [3 x ptr], ptr %15, i64 0, i64 2
  store ptr %167, ptr %168, align 16
  %169 = load ptr, ptr %8, align 8
  %170 = getelementptr inbounds %struct.CVodeMemRec, ptr %169, i32 0, i32 23
  %171 = load i32, ptr %170, align 8
  %172 = getelementptr inbounds [3 x double], ptr %14, i64 0, i64 0
  %173 = getelementptr inbounds [3 x ptr], ptr %15, i64 0, i64 0
  %174 = load ptr, ptr %13, align 8
  %175 = call i32 @N_VLinearCombinationVectorArray(i32 noundef %171, i32 noundef 3, ptr noundef %172, ptr noundef %173, ptr noundef %174)
  store i32 %175, ptr %9, align 4
  %176 = load i32, ptr %9, align 4
  %177 = icmp ne i32 %176, 0
  br i1 %177, label %178, label %179

178:                                              ; preds = %147
  store i32 -28, ptr %4, align 4
  br label %180

179:                                              ; preds = %147
  store i32 0, ptr %4, align 4
  br label %180

180:                                              ; preds = %179, %178, %146, %142, %115, %69, %65, %18
  %181 = load i32, ptr %4, align 4
  ret i32 %181
}