; Function Attrs: nounwind uwtable
define internal range(i32 -41, 16) i32 @cvNlsResidualSensSim(ptr noundef readonly captures(none) %0, ptr noundef readonly captures(none) %1, ptr noundef %2) #0 {
  %4 = alloca [3 x double], align 16
  %5 = alloca [3 x ptr], align 16
  %6 = icmp eq ptr %2, null
  br i1 %6, label %7, label %8

7:                                                ; preds = %3
  tail call void (ptr, i32, i32, ptr, ptr, ptr, ...) @cvProcessError(ptr noundef null, i32 noundef -21, i32 noundef 465, ptr noundef nonnull @__func__.cvNlsResidualSensSim, ptr noundef nonnull @.str, ptr noundef nonnull @.str.1) #2
  br label %83

8:                                                ; preds = %3
  %9 = load ptr, ptr %0, align 8
  %10 = load ptr, ptr %9, align 8
  %11 = load ptr, ptr %10, align 8
  %12 = load ptr, ptr %1, align 8
  %13 = load ptr, ptr %12, align 8
  %14 = load ptr, ptr %13, align 8
  %15 = getelementptr inbounds nuw i8, ptr %2, i64 336
  %16 = load ptr, ptr %15, align 8
  %17 = getelementptr inbounds nuw i8, ptr %2, i64 448
  %18 = load ptr, ptr %17, align 8
  tail call void @N_VLinearSum(double noundef 1.000000e+00, ptr noundef %16, double noundef 1.000000e+00, ptr noundef %11, ptr noundef %18) #2
  %19 = getelementptr inbounds nuw i8, ptr %2, i64 1912
  %20 = load ptr, ptr %19, align 8
  %21 = getelementptr inbounds nuw i8, ptr %2, i64 1032
  %22 = load double, ptr %21, align 8
  %23 = load ptr, ptr %17, align 8
  %24 = getelementptr inbounds nuw i8, ptr %2, i64 472
  %25 = load ptr, ptr %24, align 8
  %26 = getelementptr inbounds nuw i8, ptr %2, i64 24
  %27 = load ptr, ptr %26, align 8
  %28 = tail call i32 %20(double noundef %22, ptr noundef %23, ptr noundef %25, ptr noundef %27) #2
  %29 = getelementptr inbounds nuw i8, ptr %2, i64 1584
  %30 = load i64, ptr %29, align 8
  %31 = add nsw i64 %30, 1
  store i64 %31, ptr %29, align 8
  %32 = icmp slt i32 %28, 0
  br i1 %32, label %83, label %33

33:                                               ; preds = %8
  %.not = icmp eq i32 %28, 0
  br i1 %.not, label %34, label %83

34:                                               ; preds = %33
  %35 = getelementptr inbounds nuw i8, ptr %2, i64 1312
  %36 = load double, ptr %35, align 8
  %37 = getelementptr inbounds nuw i8, ptr %2, i64 344
  %38 = load ptr, ptr %37, align 8
  tail call void @N_VLinearSum(double noundef %36, ptr noundef %38, double noundef 1.000000e+00, ptr noundef %11, ptr noundef %14) #2
  %39 = getelementptr inbounds nuw i8, ptr %2, i64 1320
  %40 = load double, ptr %39, align 8
  %41 = fneg double %40
  %42 = load ptr, ptr %24, align 8
  tail call void @N_VLinearSum(double noundef %41, ptr noundef %42, double noundef 1.000000e+00, ptr noundef %14, ptr noundef %14) #2
  %43 = load ptr, ptr %0, align 8
  %44 = load ptr, ptr %43, align 8
  %45 = getelementptr inbounds nuw i8, ptr %44, i64 8
  %46 = load ptr, ptr %1, align 8
  %47 = load ptr, ptr %46, align 8
  %48 = getelementptr inbounds nuw i8, ptr %47, i64 8
  %49 = getelementptr inbounds nuw i8, ptr %2, i64 144
  %50 = load i32, ptr %49, align 8
  %51 = getelementptr inbounds nuw i8, ptr %2, i64 648
  %52 = load ptr, ptr %51, align 8
  %53 = getelementptr inbounds nuw i8, ptr %2, i64 760
  %54 = load ptr, ptr %53, align 8
  %55 = tail call i32 @N_VLinearSumVectorArray(i32 noundef %50, double noundef 1.000000e+00, ptr noundef %52, double noundef 1.000000e+00, ptr noundef nonnull %45, ptr noundef %54) #2
  %.not51 = icmp eq i32 %55, 0
  br i1 %.not51, label %56, label %83

56:                                               ; preds = %34
  %57 = load double, ptr %21, align 8
  %58 = load ptr, ptr %17, align 8
  %59 = load ptr, ptr %24, align 8
  %60 = load ptr, ptr %53, align 8
  %61 = getelementptr inbounds nuw i8, ptr %2, i64 784
  %62 = load ptr, ptr %61, align 8
  %63 = getelementptr inbounds nuw i8, ptr %2, i64 480
  %64 = load ptr, ptr %63, align 8
  %65 = getelementptr inbounds nuw i8, ptr %2, i64 488
  %66 = load ptr, ptr %65, align 8
  %67 = tail call i32 @cvSensRhsWrapper(ptr noundef nonnull %2, double noundef %57, ptr noundef %58, ptr noundef %59, ptr noundef %60, ptr noundef %62, ptr noundef %64, ptr noundef %66) #2
  %68 = icmp slt i32 %67, 0
  br i1 %68, label %83, label %69

69:                                               ; preds = %56
  %.not52 = icmp eq i32 %67, 0
  br i1 %.not52, label %70, label %83

70:                                               ; preds = %69
  %71 = load double, ptr %35, align 8
  store double %71, ptr %4, align 16
  %72 = getelementptr inbounds nuw i8, ptr %2, i64 656
  %73 = load ptr, ptr %72, align 8
  store ptr %73, ptr %5, align 16
  %74 = getelementptr inbounds nuw i8, ptr %4, i64 8
  store double 1.000000e+00, ptr %74, align 8
  %75 = getelementptr inbounds nuw i8, ptr %5, i64 8
  store ptr %45, ptr %75, align 8
  %76 = load double, ptr %39, align 8
  %77 = fneg double %76
  %78 = getelementptr inbounds nuw i8, ptr %4, i64 16
  store double %77, ptr %78, align 16
  %79 = load ptr, ptr %61, align 8
  %80 = getelementptr inbounds nuw i8, ptr %5, i64 16
  store ptr %79, ptr %80, align 16
  %81 = load i32, ptr %49, align 8
  %82 = call i32 @N_VLinearCombinationVectorArray(i32 noundef %81, i32 noundef 3, ptr noundef nonnull %4, ptr noundef nonnull %5, ptr noundef nonnull %48) #2
  %.not53 = icmp eq i32 %82, 0
  %. = select i1 %.not53, i32 0, i32 -28
  br label %83

83:                                               ; preds = %70, %69, %56, %34, %33, %8, %7
  %.0 = phi i32 [ -21, %7 ], [ -8, %8 ], [ 10, %33 ], [ -28, %34 ], [ -41, %56 ], [ 15, %69 ], [ %., %70 ]
  ret i32 %.0
}